target datalayout = "e-m:e-p270:32:32-p271:32:32-p272:64:64-i64:64-i128:128-f80:128-n8:16:32:64-S128"
target triple = "x86_64-pc-linux-gnu"

%struct.nghttp2_option = type { i64, i64, i64, i64, i64, i64, i64, i32, i32, i32, i32, i32, i32, i32, i32, i32, i32, i32, [32 x i8] }

; Function Attrs: nounwind uwtable
define void @nghttp2_option_set_builtin_recv_extension_type(ptr noundef %0, i8 noundef zeroext %1) #0 {
  %3 = alloca ptr, align 8
  %4 = alloca i8, align 1
  store ptr %0, ptr %3, align 8, !tbaa !9
  store i8 %1, ptr %4, align 1, !tbaa !21
  %5 = load i8, ptr %4, align 1, !tbaa !21
  %6 = zext i8 %5 to i32
  switch i32 %6, label %34 [
    i32 10, label %7
    i32 12, label %16
    i32 16, label %25
  ]

7:                                                ; preds = %2
  %8 = load ptr, ptr %3, align 8, !tbaa !9
  %9 = getelementptr inbounds nuw %struct.nghttp2_option, ptr %8, i32 0, i32 7
  %10 = load i32, ptr %9, align 8, !tbaa !13
  %11 = or i32 %10, 128
  store i32 %11, ptr %9, align 8, !tbaa !13
  %12 = load ptr, ptr %3, align 8, !tbaa !9
  %13 = getelementptr inbounds nuw %struct.nghttp2_option, ptr %12, i32 0, i32 10
  %14 = load i32, ptr %13, align 4, !tbaa !24
  %15 = or i32 %14, 1
  store i32 %15, ptr %13, align 4, !tbaa !24
  br label %35

16:                                               ; preds = %2
  %17 = load ptr, ptr %3, align 8, !tbaa !9
  %18 = getelementptr inbounds nuw %struct.nghttp2_option, ptr %17, i32 0, i32 7
  %19 = load i32, ptr %18, align 8, !tbaa !13
  %20 = or i32 %19, 128
  store i32 %20, ptr %18, align 8, !tbaa !13
  %21 = load ptr, ptr %3, align 8, !tbaa !9
  %22 = getelementptr inbounds nuw %struct.nghttp2_option, ptr %21, i32 0, i32 10
  %23 = load i32, ptr %22, align 4, !tbaa !24
  %24 = or i32 %23, 2
  store i32 %24, ptr %22, align 4, !tbaa !24
  br label %35

25:                                               ; preds = %2
  %26 = load ptr, ptr %3, align 8, !tbaa !9
  %27 = getelementptr inbounds nuw %struct.nghttp2_option, ptr %26, i32 0, i32 7
  %28 = load i32, ptr %27, align 8, !tbaa !13
  %29 = or i32 %28, 128
  store i32 %29, ptr %27, align 8, !tbaa !13
  %30 = load ptr, ptr %3, align 8, !tbaa !9
  %31 = getelementptr inbounds nuw %struct.nghttp2_option, ptr %30, i32 0, i32 10
  %32 = load i32, ptr %31, align 4, !tbaa !24
  %33 = or i32 %32, 4
  store i32 %33, ptr %31, align 4, !tbaa !24
  br label %35

34:                                               ; preds = %2
  br label %35

35:                                               ; preds = %34, %25, %16, %7
  ret void
}