; Function Attrs: mustprogress nofree norecurse nosync nounwind willreturn memory(argmem: readwrite) uwtable
define void @nghttp2_option_set_builtin_recv_extension_type(ptr noundef captures(none) %0, i8 noundef zeroext %1) local_unnamed_addr #4 {
  switch i8 %1, label %11 [
    i8 10, label %.sink.split
    i8 12, label %3
    i8 16, label %4
  ]

3:                                                ; preds = %2
  br label %.sink.split

4:                                                ; preds = %2
  br label %.sink.split

.sink.split:                                      ; preds = %2, %3, %4
  %.sink8 = phi i32 [ 4, %4 ], [ 2, %3 ], [ 1, %2 ]
  %5 = getelementptr inbounds nuw i8, ptr %0, i64 56
  %6 = load i32, ptr %5, align 8, !tbaa !8
  %7 = or i32 %6, 128
  store i32 %7, ptr %5, align 8, !tbaa !8
  %8 = getelementptr inbounds nuw i8, ptr %0, i64 68
  %9 = load i32, ptr %8, align 4, !tbaa !18
  %10 = or i32 %9, %.sink8
  store i32 %10, ptr %8, align 4, !tbaa !18
  br label %11

11:                                               ; preds = %.sink.split, %2
  ret void
}